target datalayout = "e-m:e-p270:32:32-p271:32:32-p272:64:64-i64:64-i128:128-f80:128-n8:16:32:64-S128"
target triple = "x86_64-pc-linux-gnu"

%"class.gmx::BinaryInformationSettings" = type { i8, i8, i8, i8, ptr, ptr }
%class.anon.21 = type { i8 }

@.str.3 = private unnamed_addr constant [130 x i8] c"generated/home/dtcxzyw/WorkSpace/Projects/compilers/llvm-opt-benchmark/bench/gromacs/gromacs/src/gromacs/mdrunutility/logging.cpp\00", align 1
@.str.6 = private unnamed_addr constant [17 x i8] c"fplog != nullptr\00", align 1
@.str.7 = private unnamed_addr constant [30 x i8] c"Log file must be already open\00", align 1
@.str.8 = private unnamed_addr constant [124 x i8] c"\0A\0A-----------------------------------------------------------\0ARestarting from checkpoint, appending to previous log file.\0A\0A\00", align 1
@"__PRETTY_FUNCTION__._ZZN3gmx19prepareLogAppendingEP8_IO_FILEENK3$_0clEv" = private unnamed_addr constant [77 x i8] c"auto gmx::prepareLogAppending(FILE *)::(anonymous class)::operator()() const\00", align 1

; Function Attrs: mustprogress nounwind uwtable
define linkonce_odr noundef nonnull align 8 dereferenceable(24) ptr @_ZN3gmx25BinaryInformationSettings9copyrightEb(ptr noundef nonnull align 8 dereferenceable(24) %0, i1 noundef zeroext %1) #2 comdat align 2 {
  %3 = alloca ptr, align 8
  %4 = alloca i8, align 1
  store ptr %0, ptr %3, align 8
  %5 = zext i1 %1 to i8
  store i8 %5, ptr %4, align 1
  %6 = load ptr, ptr %3, align 8
  %7 = load i8, ptr %4, align 1
  %8 = trunc i8 %7 to i1
  %9 = getelementptr inbounds %"class.gmx::BinaryInformationSettings", ptr %6, i32 0, i32 1
  %10 = zext i1 %8 to i8
  store i8 %10, ptr %9, align 1
  ret ptr %6
}

; Function Attrs: mustprogress uwtable
define internal void @"_ZZN3gmx19prepareLogAppendingEP8_IO_FILEENK3$_0clEv"(ptr noundef nonnull align 1 dereferenceable(1) %0) #0 align 2 {
  %2 = alloca ptr, align 8
  store ptr %0, ptr %2, align 8
  call void @_ZN3gmx8internal13assertHandlerEPKcS2_S2_S2_i(ptr noundef @.str.6, ptr noundef @.str.7, ptr noundef @"__PRETTY_FUNCTION__._ZZN3gmx19prepareLogAppendingEP8_IO_FILEENK3$_0clEv", ptr noundef @.str.3, i32 noundef 107) #11
  unreachable
}

; Function Attrs: mustprogress uwtable
define void @_ZN3gmx19prepareLogAppendingEP8_IO_FILE(ptr noundef %0) #0 {
  %2 = alloca ptr, align 8
  %3 = alloca %class.anon.21, align 1
  %4 = alloca %"class.gmx::BinaryInformationSettings", align 8
  %5 = alloca %"class.gmx::BinaryInformationSettings", align 8
  store ptr %0, ptr %2, align 8
  %6 = load ptr, ptr %2, align 8
  %7 = icmp ne ptr %6, null
  br i1 %7, label %8, label %9

8:                                                ; preds = %1
  br label %10

9:                                                ; preds = %1
  call void @"_ZZN3gmx19prepareLogAppendingEP8_IO_FILEENK3$_0clEv"(ptr noundef nonnull align 1 dereferenceable(1) %3)
  br label %10

10:                                               ; preds = %9, %8
  %11 = load ptr, ptr %2, align 8
  %12 = call i32 (ptr, ptr, ...) @fprintf(ptr noundef %11, ptr noundef @.str.8) #10
  call void @_ZN3gmx25BinaryInformationSettingsC1Ev(ptr noundef nonnull align 8 dereferenceable(24) %4)
  %13 = call noundef nonnull align 8 dereferenceable(24) ptr @_ZN3gmx25BinaryInformationSettings9copyrightEb(ptr noundef nonnull align 8 dereferenceable(24) %4, i1 noundef zeroext false)
  call void @llvm.memcpy.p0.p0.i64(ptr align 8 %5, ptr align 8 %4, i64 24, i1 false)
  %14 = load ptr, ptr %2, align 8
  call void @_ZN3gmxL14prepareLogFileENS_25BinaryInformationSettingsEP8_IO_FILE(ptr noundef byval(%"class.gmx::BinaryInformationSettings") align 8 %5, ptr noundef %14)
  ret void
}