; Function Attrs: mustprogress uwtable
define void @_ZN3gmx19prepareLogAppendingEP8_IO_FILE(ptr noundef %0) local_unnamed_addr #0 {
  %2 = alloca %"class.gmx::BinaryInformationSettings", align 8
  %.not = icmp eq ptr %0, null
  br i1 %.not, label %3, label %4

3:                                                ; preds = %1
  tail call void @_ZN3gmx8internal13assertHandlerEPKcS2_S2_S2_i(ptr noundef nonnull @.str.6, ptr noundef nonnull @.str.7, ptr noundef nonnull @"__PRETTY_FUNCTION__._ZZN3gmx19prepareLogAppendingEP8_IO_FILEENK3$_0clEv", ptr noundef nonnull @.str.3, i32 noundef 107) #16
  unreachable

4:                                                ; preds = %1
  %5 = tail call i64 @fwrite(ptr nonnull @.str.8, i64 123, i64 1, ptr nonnull %0)
  call void @_ZN3gmx25BinaryInformationSettingsC1Ev(ptr noundef nonnull align 8 dereferenceable(24) %2)
  %6 = getelementptr inbounds i8, ptr %2, i64 1
  store i8 0, ptr %6, align 1
  call fastcc void @_ZN3gmxL14prepareLogFileENS_25BinaryInformationSettingsEP8_IO_FILE(ptr noundef nonnull byval(%"class.gmx::BinaryInformationSettings") align 8 %2, ptr noundef nonnull %0)
  ret void
}